target datalayout = "e-m:e-p270:32:32-p271:32:32-p272:64:64-i64:64-i128:128-f80:128-n8:16:32:64-S128"
target triple = "x86_64-pc-linux-gnu"

; Function Attrs: nounwind uwtable
define internal void @MEM_write16(ptr noundef %0, i16 noundef zeroext %1) #0 {
  %3 = alloca ptr, align 8
  %4 = alloca i16, align 2
  store ptr %0, ptr %3, align 8
  store i16 %1, ptr %4, align 2
  %5 = load i16, ptr %4, align 2
  %6 = load ptr, ptr %3, align 8
  store i16 %5, ptr %6, align 1
  ret void
}

; Function Attrs: nounwind uwtable
define internal i32 @MEM_isLittleEndian() #0 {
  ret i32 1
}

; Function Attrs: nounwind uwtable
define internal void @MEM_writeLE16(ptr noundef %0, i16 noundef zeroext %1) #0 {
  %3 = alloca ptr, align 8
  %4 = alloca i16, align 2
  %5 = alloca ptr, align 8
  store ptr %0, ptr %3, align 8
  store i16 %1, ptr %4, align 2
  %6 = call i32 @MEM_isLittleEndian()
  %7 = icmp ne i32 %6, 0
  br i1 %7, label %8, label %11

8:                                                ; preds = %2
  %9 = load ptr, ptr %3, align 8
  %10 = load i16, ptr %4, align 2
  call void @MEM_write16(ptr noundef %9, i16 noundef zeroext %10)
  br label %23

11:                                               ; preds = %2
  %12 = load ptr, ptr %3, align 8
  store ptr %12, ptr %5, align 8
  %13 = load i16, ptr %4, align 2
  %14 = trunc i16 %13 to i8
  %15 = load ptr, ptr %5, align 8
  %16 = getelementptr inbounds i8, ptr %15, i64 0
  store i8 %14, ptr %16, align 1
  %17 = load i16, ptr %4, align 2
  %18 = zext i16 %17 to i32
  %19 = ashr i32 %18, 8
  %20 = trunc i32 %19 to i8
  %21 = load ptr, ptr %5, align 8
  %22 = getelementptr inbounds i8, ptr %21, i64 1
  store i8 %20, ptr %22, align 1
  br label %23

23:                                               ; preds = %11, %8
  ret void
}

; Function Attrs: nounwind uwtable
define internal void @MEM_writeLE24(ptr noundef %0, i32 noundef %1) #0 {
  %3 = alloca ptr, align 8
  %4 = alloca i32, align 4
  store ptr %0, ptr %3, align 8
  store i32 %1, ptr %4, align 4
  %5 = load ptr, ptr %3, align 8
  %6 = load i32, ptr %4, align 4
  %7 = trunc i32 %6 to i16
  call void @MEM_writeLE16(ptr noundef %5, i16 noundef zeroext %7)
  %8 = load i32, ptr %4, align 4
  %9 = lshr i32 %8, 16
  %10 = trunc i32 %9 to i8
  %11 = load ptr, ptr %3, align 8
  %12 = getelementptr inbounds i8, ptr %11, i64 2
  store i8 %10, ptr %12, align 1
  ret void
}

; Function Attrs: nounwind uwtable
define dso_local i64 @ZSTD_writeLastEmptyBlock(ptr noundef %0, i64 noundef %1) #0 {
  %3 = alloca i64, align 8
  %4 = alloca ptr, align 8
  %5 = alloca i64, align 8
  %6 = alloca i32, align 4
  store ptr %0, ptr %4, align 8
  store i64 %1, ptr %5, align 8
  %7 = load i64, ptr %5, align 8
  %8 = icmp ult i64 %7, 3
  br i1 %8, label %9, label %10

9:                                                ; preds = %2
  store i64 -70, ptr %3, align 8
  br label %12

10:                                               ; preds = %2
  store i32 1, ptr %6, align 4
  %11 = load ptr, ptr %4, align 8
  call void @MEM_writeLE24(ptr noundef %11, i32 noundef 1)
  store i64 3, ptr %3, align 8
  br label %12

12:                                               ; preds = %10, %9
  %13 = load i64, ptr %3, align 8
  ret i64 %13
}